target datalayout = "e-m:e-p270:32:32-p271:32:32-p272:64:64-i64:64-i128:128-f80:128-n8:16:32:64-S128"
target triple = "x86_64-pc-linux-gnu"

@tcg_env = external global ptr, align 8

; Function Attrs: nounwind sspstrong uwtable
define internal void @expand_4_vec(i32 noundef %0, i32 noundef %1, i32 noundef %2, i32 noundef %3, i32 noundef %4, i32 noundef %5, i32 noundef %6, i32 noundef %7, i1 noundef zeroext %8, ptr noundef %9) #0 {
  %11 = alloca i32, align 4
  %12 = alloca i32, align 4
  %13 = alloca i32, align 4
  %14 = alloca i32, align 4
  %15 = alloca i32, align 4
  %16 = alloca i32, align 4
  %17 = alloca i32, align 4
  %18 = alloca i32, align 4
  %19 = alloca i8, align 1
  %20 = alloca ptr, align 8
  %21 = alloca i32, align 4
  %22 = alloca ptr, align 8
  %23 = alloca ptr, align 8
  %24 = alloca ptr, align 8
  %25 = alloca ptr, align 8
  store i32 %0, ptr %11, align 4
  store i32 %1, ptr %12, align 4
  store i32 %2, ptr %13, align 4
  store i32 %3, ptr %14, align 4
  store i32 %4, ptr %15, align 4
  store i32 %5, ptr %16, align 4
  store i32 %6, ptr %17, align 4
  store i32 %7, ptr %18, align 4
  %26 = zext i1 %8 to i8
  store i8 %26, ptr %19, align 1
  store ptr %9, ptr %20, align 8
  call void @llvm.lifetime.start.p0(i64 4, ptr %21) #10
  store i32 0, ptr %21, align 4
  br label %27

27:                                               ; preds = %81, %10
  %28 = load i32, ptr %21, align 4
  %29 = load i32, ptr %16, align 4
  %30 = icmp ult i32 %28, %29
  br i1 %30, label %32, label %31

31:                                               ; preds = %27
  call void @llvm.lifetime.end.p0(i64 4, ptr %21) #10
  br label %85

32:                                               ; preds = %27
  call void @llvm.lifetime.start.p0(i64 8, ptr %22) #10
  %33 = load i32, ptr %18, align 4
  %34 = call ptr @tcg_temp_new_vec(i32 noundef %33)
  store ptr %34, ptr %22, align 8
  call void @llvm.lifetime.start.p0(i64 8, ptr %23) #10
  %35 = load i32, ptr %18, align 4
  %36 = call ptr @tcg_temp_new_vec(i32 noundef %35)
  store ptr %36, ptr %23, align 8
  call void @llvm.lifetime.start.p0(i64 8, ptr %24) #10
  %37 = load i32, ptr %18, align 4
  %38 = call ptr @tcg_temp_new_vec(i32 noundef %37)
  store ptr %38, ptr %24, align 8
  call void @llvm.lifetime.start.p0(i64 8, ptr %25) #10
  %39 = load i32, ptr %18, align 4
  %40 = call ptr @tcg_temp_new_vec(i32 noundef %39)
  store ptr %40, ptr %25, align 8
  %41 = load ptr, ptr %23, align 8
  %42 = load ptr, ptr @tcg_env, align 8
  %43 = load i32, ptr %13, align 4
  %44 = load i32, ptr %21, align 4
  %45 = add i32 %43, %44
  %46 = zext i32 %45 to i64
  call void @tcg_gen_ld_vec(ptr noundef %41, ptr noundef %42, i64 noundef %46)
  %47 = load ptr, ptr %24, align 8
  %48 = load ptr, ptr @tcg_env, align 8
  %49 = load i32, ptr %14, align 4
  %50 = load i32, ptr %21, align 4
  %51 = add i32 %49, %50
  %52 = zext i32 %51 to i64
  call void @tcg_gen_ld_vec(ptr noundef %47, ptr noundef %48, i64 noundef %52)
  %53 = load ptr, ptr %25, align 8
  %54 = load ptr, ptr @tcg_env, align 8
  %55 = load i32, ptr %15, align 4
  %56 = load i32, ptr %21, align 4
  %57 = add i32 %55, %56
  %58 = zext i32 %57 to i64
  call void @tcg_gen_ld_vec(ptr noundef %53, ptr noundef %54, i64 noundef %58)
  %59 = load ptr, ptr %20, align 8
  %60 = load i32, ptr %11, align 4
  %61 = load ptr, ptr %22, align 8
  %62 = load ptr, ptr %23, align 8
  %63 = load ptr, ptr %24, align 8
  %64 = load ptr, ptr %25, align 8
  call void %59(i32 noundef %60, ptr noundef %61, ptr noundef %62, ptr noundef %63, ptr noundef %64)
  %65 = load ptr, ptr %22, align 8
  %66 = load ptr, ptr @tcg_env, align 8
  %67 = load i32, ptr %12, align 4
  %68 = load i32, ptr %21, align 4
  %69 = add i32 %67, %68
  %70 = zext i32 %69 to i64
  call void @tcg_gen_st_vec(ptr noundef %65, ptr noundef %66, i64 noundef %70)
  %71 = load i8, ptr %19, align 1, !range !5, !noundef !6
  %72 = trunc i8 %71 to i1
  br i1 %72, label %73, label %80

73:                                               ; preds = %32
  %74 = load ptr, ptr %23, align 8
  %75 = load ptr, ptr @tcg_env, align 8
  %76 = load i32, ptr %13, align 4
  %77 = load i32, ptr %21, align 4
  %78 = add i32 %76, %77
  %79 = zext i32 %78 to i64
  call void @tcg_gen_st_vec(ptr noundef %74, ptr noundef %75, i64 noundef %79)
  br label %80

80:                                               ; preds = %73, %32
  call void @llvm.lifetime.end.p0(i64 8, ptr %25) #10
  call void @llvm.lifetime.end.p0(i64 8, ptr %24) #10
  call void @llvm.lifetime.end.p0(i64 8, ptr %23) #10
  call void @llvm.lifetime.end.p0(i64 8, ptr %22) #10
  br label %81

81:                                               ; preds = %80
  %82 = load i32, ptr %17, align 4
  %83 = load i32, ptr %21, align 4
  %84 = add i32 %83, %82
  store i32 %84, ptr %21, align 4
  br label %27, !llvm.loop !23

85:                                               ; preds = %31
  ret void
}