; Function Attrs: nounwind sspstrong uwtable
define internal fastcc void @expand_4_vec(i32 noundef range(i32 0, 256) %0, i32 noundef %1, i32 noundef %2, i32 noundef %3, i32 noundef %4, i32 noundef %5, i32 noundef range(i32 8, 33) %6, i32 noundef range(i32 3, 6) %7, i1 noundef zeroext %8, ptr noundef readonly captures(none) %9) unnamed_addr #2 {
  %.not = icmp eq i32 %5, 0
  br i1 %.not, label %._crit_edge, label %.lr.ph

.lr.ph:                                           ; preds = %10
  br i1 %8, label %.lr.ph.split.us, label %.lr.ph.split

.lr.ph.split.us:                                  ; preds = %.lr.ph, %.lr.ph.split.us
  %.029.us = phi i32 [ %28, %.lr.ph.split.us ], [ 0, %.lr.ph ]
  %11 = tail call ptr @tcg_temp_new_vec(i32 noundef %7) #10
  %12 = tail call ptr @tcg_temp_new_vec(i32 noundef %7) #10
  %13 = tail call ptr @tcg_temp_new_vec(i32 noundef %7) #10
  %14 = tail call ptr @tcg_temp_new_vec(i32 noundef %7) #10
  %15 = load ptr, ptr @tcg_env, align 8
  %16 = add i32 %.029.us, %2
  %17 = zext i32 %16 to i64
  tail call void @tcg_gen_ld_vec(ptr noundef %12, ptr noundef %15, i64 noundef %17) #10
  %18 = load ptr, ptr @tcg_env, align 8
  %19 = add i32 %.029.us, %3
  %20 = zext i32 %19 to i64
  tail call void @tcg_gen_ld_vec(ptr noundef %13, ptr noundef %18, i64 noundef %20) #10
  %21 = load ptr, ptr @tcg_env, align 8
  %22 = add i32 %.029.us, %4
  %23 = zext i32 %22 to i64
  tail call void @tcg_gen_ld_vec(ptr noundef %14, ptr noundef %21, i64 noundef %23) #10
  tail call void %9(i32 noundef %0, ptr noundef %11, ptr noundef %12, ptr noundef %13, ptr noundef %14) #10
  %24 = load ptr, ptr @tcg_env, align 8
  %25 = add i32 %.029.us, %1
  %26 = zext i32 %25 to i64
  tail call void @tcg_gen_st_vec(ptr noundef %11, ptr noundef %24, i64 noundef %26) #10
  %27 = load ptr, ptr @tcg_env, align 8
  tail call void @tcg_gen_st_vec(ptr noundef %12, ptr noundef %27, i64 noundef %17) #10
  %28 = add i32 %.029.us, %6
  %29 = icmp ult i32 %28, %5
  br i1 %29, label %.lr.ph.split.us, label %._crit_edge, !llvm.loop !24

._crit_edge:                                      ; preds = %.lr.ph.split, %.lr.ph.split.us, %10
  ret void

.lr.ph.split:                                     ; preds = %.lr.ph, %.lr.ph.split
  %.029 = phi i32 [ %46, %.lr.ph.split ], [ 0, %.lr.ph ]
  %30 = tail call ptr @tcg_temp_new_vec(i32 noundef %7) #10
  %31 = tail call ptr @tcg_temp_new_vec(i32 noundef %7) #10
  %32 = tail call ptr @tcg_temp_new_vec(i32 noundef %7) #10
  %33 = tail call ptr @tcg_temp_new_vec(i32 noundef %7) #10
  %34 = load ptr, ptr @tcg_env, align 8
  %35 = add i32 %.029, %2
  %36 = zext i32 %35 to i64
  tail call void @tcg_gen_ld_vec(ptr noundef %31, ptr noundef %34, i64 noundef %36) #10
  %37 = load ptr, ptr @tcg_env, align 8
  %38 = add i32 %.029, %3
  %39 = zext i32 %38 to i64
  tail call void @tcg_gen_ld_vec(ptr noundef %32, ptr noundef %37, i64 noundef %39) #10
  %40 = load ptr, ptr @tcg_env, align 8
  %41 = add i32 %.029, %4
  %42 = zext i32 %41 to i64
  tail call void @tcg_gen_ld_vec(ptr noundef %33, ptr noundef %40, i64 noundef %42) #10
  tail call void %9(i32 noundef %0, ptr noundef %30, ptr noundef %31, ptr noundef %32, ptr noundef %33) #10
  %43 = load ptr, ptr @tcg_env, align 8
  %44 = add i32 %.029, %1
  %45 = zext i32 %44 to i64
  tail call void @tcg_gen_st_vec(ptr noundef %30, ptr noundef %43, i64 noundef %45) #10
  %46 = add i32 %.029, %6
  %47 = icmp ult i32 %46, %5
  br i1 %47, label %.lr.ph.split, label %._crit_edge, !llvm.loop !24
}